target datalayout = "e-m:e-p270:32:32-p271:32:32-p272:64:64-i64:64-i128:128-f80:128-n8:16:32:64-S128"
target triple = "x86_64-pc-linux-gnu"

; Function Attrs: mustprogress nounwind uwtable
define linkonce_odr hidden noundef zeroext i1 @_ZN8facebook4yoga11isUndefinedITkSt14floating_pointdEEbT_(double noundef %0) #4 comdat {
  %2 = alloca double, align 8
  store double %0, ptr %2, align 8, !tbaa !4
  %3 = load double, ptr %2, align 8, !tbaa !4
  %4 = load double, ptr %2, align 8, !tbaa !4
  %5 = fcmp une double %3, %4
  ret i1 %5
}

; Function Attrs: inlinehint mustprogress nounwind uwtable
define linkonce_odr noundef double @_ZSt3absd(double noundef %0) #7 comdat {
  %2 = alloca double, align 8
  store double %0, ptr %2, align 8, !tbaa !4
  %3 = load double, ptr %2, align 8, !tbaa !4
  %4 = call double @llvm.fabs.f64(double %3)
  ret double %4
}

; Function Attrs: mustprogress uwtable
define linkonce_odr hidden noundef zeroext i1 @_ZN8facebook4yoga9isDefinedITkSt14floating_pointdEEbT_(double noundef %0) #0 comdat {
  %2 = alloca double, align 8
  store double %0, ptr %2, align 8, !tbaa !4
  %3 = load double, ptr %2, align 8, !tbaa !4
  %4 = call noundef zeroext i1 @_ZN8facebook4yoga11isUndefinedITkSt14floating_pointdEEbT_(double noundef %3)
  %5 = xor i1 %4, true
  ret i1 %5
}

; Function Attrs: mustprogress nounwind uwtable
define linkonce_odr noundef zeroext i1 @_ZSt5isnand(double noundef %0) #4 comdat {
  %2 = alloca double, align 8
  store double %0, ptr %2, align 8, !tbaa !4
  %3 = load double, ptr %2, align 8, !tbaa !4
  %4 = call i1 @llvm.is.fpclass.f64(double %3, i32 3)
  ret i1 %4
}

; Function Attrs: inlinehint mustprogress uwtable
define linkonce_odr hidden noundef zeroext i1 @_ZN8facebook4yoga13inexactEqualsEdd(double noundef %0, double noundef %1) #3 comdat {
  %3 = alloca i1, align 1
  %4 = alloca double, align 8
  %5 = alloca double, align 8
  store double %0, ptr %4, align 8, !tbaa !4
  store double %1, ptr %5, align 8, !tbaa !4
  %6 = load double, ptr %4, align 8, !tbaa !4
  %7 = call noundef zeroext i1 @_ZN8facebook4yoga9isDefinedITkSt14floating_pointdEEbT_(double noundef %6)
  br i1 %7, label %8, label %17

8:                                                ; preds = %2
  %9 = load double, ptr %5, align 8, !tbaa !4
  %10 = call noundef zeroext i1 @_ZN8facebook4yoga9isDefinedITkSt14floating_pointdEEbT_(double noundef %9)
  br i1 %10, label %11, label %17

11:                                               ; preds = %8
  %12 = load double, ptr %4, align 8, !tbaa !4
  %13 = load double, ptr %5, align 8, !tbaa !4
  %14 = fsub double %12, %13
  %15 = call noundef double @_ZSt3absd(double noundef %14)
  %16 = fcmp olt double %15, 1.000000e-04
  store i1 %16, ptr %3, align 1
  br label %25

17:                                               ; preds = %8, %2
  %18 = load double, ptr %4, align 8, !tbaa !4
  %19 = call noundef zeroext i1 @_ZN8facebook4yoga11isUndefinedITkSt14floating_pointdEEbT_(double noundef %18)
  br i1 %19, label %20, label %23

20:                                               ; preds = %17
  %21 = load double, ptr %5, align 8, !tbaa !4
  %22 = call noundef zeroext i1 @_ZN8facebook4yoga11isUndefinedITkSt14floating_pointdEEbT_(double noundef %21)
  br label %23

23:                                               ; preds = %20, %17
  %24 = phi i1 [ false, %17 ], [ %22, %20 ]
  store i1 %24, ptr %3, align 1
  br label %25

25:                                               ; preds = %23, %11
  %26 = load i1, ptr %3, align 1
  ret i1 %26
}

; Function Attrs: mustprogress uwtable
define hidden noundef float @_ZN8facebook4yoga21roundValueToPixelGridEddbb(double noundef %0, double noundef %1, i1 noundef zeroext %2, i1 noundef zeroext %3) #0 {
  %5 = alloca double, align 8
  %6 = alloca double, align 8
  %7 = alloca i8, align 1
  %8 = alloca i8, align 1
  %9 = alloca double, align 8
  %10 = alloca double, align 8
  store double %0, ptr %5, align 8, !tbaa !4
  store double %1, ptr %6, align 8, !tbaa !4
  %11 = zext i1 %2 to i8
  store i8 %11, ptr %7, align 1, !tbaa !8
  %12 = zext i1 %3 to i8
  store i8 %12, ptr %8, align 1, !tbaa !8
  call void @llvm.lifetime.start.p0(i64 8, ptr %9) #8
  %13 = load double, ptr %5, align 8, !tbaa !4
  %14 = load double, ptr %6, align 8, !tbaa !4
  %15 = fmul double %13, %14
  store double %15, ptr %9, align 8, !tbaa !4
  call void @llvm.lifetime.start.p0(i64 8, ptr %10) #8
  %16 = load double, ptr %9, align 8, !tbaa !4
  %17 = call double @fmod(double noundef %16, double noundef 1.000000e+00) #8, !tbaa !10
  store double %17, ptr %10, align 8, !tbaa !4
  %18 = load double, ptr %10, align 8, !tbaa !4
  %19 = fcmp olt double %18, 0.000000e+00
  br i1 %19, label %20, label %23

20:                                               ; preds = %4
  %21 = load double, ptr %10, align 8, !tbaa !4
  %22 = fadd double %21, 1.000000e+00
  store double %22, ptr %10, align 8, !tbaa !4
  br label %23

23:                                               ; preds = %20, %4
  %24 = load double, ptr %10, align 8, !tbaa !4
  %25 = call noundef zeroext i1 @_ZN8facebook4yoga13inexactEqualsEdd(double noundef %24, double noundef 0.000000e+00)
  br i1 %25, label %26, label %30

26:                                               ; preds = %23
  %27 = load double, ptr %9, align 8, !tbaa !4
  %28 = load double, ptr %10, align 8, !tbaa !4
  %29 = fsub double %27, %28
  store double %29, ptr %9, align 8, !tbaa !4
  br label %74

30:                                               ; preds = %23
  %31 = load double, ptr %10, align 8, !tbaa !4
  %32 = call noundef zeroext i1 @_ZN8facebook4yoga13inexactEqualsEdd(double noundef %31, double noundef 1.000000e+00)
  br i1 %32, label %33, label %38

33:                                               ; preds = %30
  %34 = load double, ptr %9, align 8, !tbaa !4
  %35 = load double, ptr %10, align 8, !tbaa !4
  %36 = fsub double %34, %35
  %37 = fadd double %36, 1.000000e+00
  store double %37, ptr %9, align 8, !tbaa !4
  br label %73

38:                                               ; preds = %30
  %39 = load i8, ptr %7, align 1, !tbaa !8, !range !12, !noundef !13
  %40 = trunc i8 %39 to i1
  br i1 %40, label %41, label %46

41:                                               ; preds = %38
  %42 = load double, ptr %9, align 8, !tbaa !4
  %43 = load double, ptr %10, align 8, !tbaa !4
  %44 = fsub double %42, %43
  %45 = fadd double %44, 1.000000e+00
  store double %45, ptr %9, align 8, !tbaa !4
  br label %72

46:                                               ; preds = %38
  %47 = load i8, ptr %8, align 1, !tbaa !8, !range !12, !noundef !13
  %48 = trunc i8 %47 to i1
  br i1 %48, label %49, label %53

49:                                               ; preds = %46
  %50 = load double, ptr %9, align 8, !tbaa !4
  %51 = load double, ptr %10, align 8, !tbaa !4
  %52 = fsub double %50, %51
  store double %52, ptr %9, align 8, !tbaa !4
  br label %71

53:                                               ; preds = %46
  %54 = load double, ptr %9, align 8, !tbaa !4
  %55 = load double, ptr %10, align 8, !tbaa !4
  %56 = fsub double %54, %55
  %57 = load double, ptr %10, align 8, !tbaa !4
  %58 = call noundef zeroext i1 @_ZSt5isnand(double noundef %57)
  br i1 %58, label %67, label %59

59:                                               ; preds = %53
  %60 = load double, ptr %10, align 8, !tbaa !4
  %61 = fcmp ogt double %60, 5.000000e-01
  br i1 %61, label %65, label %62

62:                                               ; preds = %59
  %63 = load double, ptr %10, align 8, !tbaa !4
  %64 = call noundef zeroext i1 @_ZN8facebook4yoga13inexactEqualsEdd(double noundef %63, double noundef 5.000000e-01)
  br label %65

65:                                               ; preds = %62, %59
  %66 = phi i1 [ true, %59 ], [ %64, %62 ]
  br label %67

67:                                               ; preds = %65, %53
  %68 = phi i1 [ false, %53 ], [ %66, %65 ]
  %69 = select i1 %68, double 1.000000e+00, double 0.000000e+00
  %70 = fadd double %56, %69
  store double %70, ptr %9, align 8, !tbaa !4
  br label %71

71:                                               ; preds = %67, %49
  br label %72

72:                                               ; preds = %71, %41
  br label %73

73:                                               ; preds = %72, %33
  br label %74

74:                                               ; preds = %73, %26
  %75 = load double, ptr %9, align 8, !tbaa !4
  %76 = call noundef zeroext i1 @_ZSt5isnand(double noundef %75)
  br i1 %76, label %80, label %77

77:                                               ; preds = %74
  %78 = load double, ptr %6, align 8, !tbaa !4
  %79 = call noundef zeroext i1 @_ZSt5isnand(double noundef %78)
  br i1 %79, label %80, label %81

80:                                               ; preds = %77, %74
  br label %86

81:                                               ; preds = %77
  %82 = load double, ptr %9, align 8, !tbaa !4
  %83 = load double, ptr %6, align 8, !tbaa !4
  %84 = fdiv double %82, %83
  %85 = fptrunc double %84 to float
  br label %86

86:                                               ; preds = %81, %80
  %87 = phi float [ 0x7FF8000000000000, %80 ], [ %85, %81 ]
  call void @llvm.lifetime.end.p0(i64 8, ptr %10) #8
  call void @llvm.lifetime.end.p0(i64 8, ptr %9) #8
  ret float %87
}