; Function Attrs: mustprogress nofree nounwind willreturn memory(write) uwtable
define hidden noundef float @_ZN8facebook4yoga21roundValueToPixelGridEddbb(double noundef %0, double noundef %1, i1 noundef zeroext %2, i1 noundef zeroext %3) local_unnamed_addr #0 {
  %5 = fmul double %0, %1
  %6 = tail call double @fmod(double noundef %5, double noundef 1.000000e+00) #5, !tbaa !4
  %7 = fcmp olt double %6, 0.000000e+00
  %8 = fadd double %6, 1.000000e+00
  %.0 = select i1 %7, double %8, double %6
  %9 = tail call double @llvm.fabs.f64(double %.0)
  %10 = fcmp olt double %9, 1.000000e-04
  br i1 %10, label %11, label %_ZN8facebook4yoga13inexactEqualsEdd.exit.thread

11:                                               ; preds = %4
  %12 = fsub double %5, %.0
  br label %33

_ZN8facebook4yoga13inexactEqualsEdd.exit.thread:  ; preds = %4
  %or.cond.i27 = fcmp ord double %.0, 0.000000e+00
  br i1 %or.cond.i27, label %_ZN8facebook4yoga13inexactEqualsEdd.exit29, label %_ZN8facebook4yoga13inexactEqualsEdd.exit29.thread

_ZN8facebook4yoga13inexactEqualsEdd.exit29:       ; preds = %_ZN8facebook4yoga13inexactEqualsEdd.exit.thread
  %13 = fadd double %.0, -1.000000e+00
  %14 = tail call noundef double @llvm.fabs.f64(double %13)
  %15 = fcmp olt double %14, 1.000000e-04
  br i1 %15, label %16, label %_ZN8facebook4yoga13inexactEqualsEdd.exit29.thread

16:                                               ; preds = %_ZN8facebook4yoga13inexactEqualsEdd.exit29
  %17 = fsub double %5, %.0
  %18 = fadd double %17, 1.000000e+00
  br label %33

_ZN8facebook4yoga13inexactEqualsEdd.exit29.thread: ; preds = %_ZN8facebook4yoga13inexactEqualsEdd.exit.thread, %_ZN8facebook4yoga13inexactEqualsEdd.exit29
  %19 = fsub double %5, %.0
  br i1 %2, label %20, label %22

20:                                               ; preds = %_ZN8facebook4yoga13inexactEqualsEdd.exit29.thread
  %21 = fadd double %19, 1.000000e+00
  br label %33

22:                                               ; preds = %_ZN8facebook4yoga13inexactEqualsEdd.exit29.thread
  br i1 %3, label %33, label %23

23:                                               ; preds = %22
  %24 = fcmp uno double %.0, 0.000000e+00
  br i1 %24, label %_ZN8facebook4yoga13inexactEqualsEdd.exit32.thread, label %25

25:                                               ; preds = %23
  %26 = fcmp ogt double %.0, 5.000000e-01
  br i1 %26, label %_ZN8facebook4yoga13inexactEqualsEdd.exit32.thread, label %_ZN8facebook4yoga13inexactEqualsEdd.exit32

_ZN8facebook4yoga13inexactEqualsEdd.exit32:       ; preds = %25
  %27 = fadd double %.0, -5.000000e-01
  %28 = tail call noundef double @llvm.fabs.f64(double %27)
  %29 = fcmp olt double %28, 1.000000e-04
  br i1 %29, label %30, label %_ZN8facebook4yoga13inexactEqualsEdd.exit32.thread

30:                                               ; preds = %_ZN8facebook4yoga13inexactEqualsEdd.exit32
  br label %_ZN8facebook4yoga13inexactEqualsEdd.exit32.thread

_ZN8facebook4yoga13inexactEqualsEdd.exit32.thread: ; preds = %30, %_ZN8facebook4yoga13inexactEqualsEdd.exit32, %25, %23
  %31 = phi double [ 0.000000e+00, %23 ], [ 1.000000e+00, %25 ], [ 1.000000e+00, %30 ], [ 0.000000e+00, %_ZN8facebook4yoga13inexactEqualsEdd.exit32 ]
  %32 = fadd double %19, %31
  br label %33

33:                                               ; preds = %22, %16, %_ZN8facebook4yoga13inexactEqualsEdd.exit32.thread, %20, %11
  %.025 = phi double [ %12, %11 ], [ %18, %16 ], [ %21, %20 ], [ %32, %_ZN8facebook4yoga13inexactEqualsEdd.exit32.thread ], [ %19, %22 ]
  %or.cond37 = fcmp uno double %.025, %1
  %34 = fdiv double %.025, %1
  %35 = fptrunc double %34 to float
  %36 = select i1 %or.cond37, float 0x7FF8000000000000, float %35
  ret float %36
}